(lp0
Na.(lp0
I33485
aI97611
aI98215
aI42942
aI44201
aI14835
aI71549
aI849
aI84428
aI28873
aI6810
aI75435
aI25947
aI88425
aI27556
aI64707
aI32420
aI61918
aI77553
aI89629
a.I1
.N.(dp0
S'states'
p1
(lp2
I3927
aI4495
aI2248
aI664
aI2627
aI3640
aI733
aI5166
aI4829
aI8830
aI4235
aI1869
aI1849
aI2274
aI6532
aI2237
aI6350
aI5770
aI3679
aI1654
asS'pathLength'
p3
(lp4
F60.11970176465554
aF37.605480868083596
aF32.46380943858525
aF26.502774502197784
aF48.912572399171125
aF36.240911846551306
aF24.379773569647785
aF46.107520227204354
aF31.626869531070923
aF58.19522295505813
aF50.26142611145539
aF30.596041220806452
aF29.523939679192054
aF27.66063104674891
aF41.94075407958273
aF33.412695023802826
aF36.02769016982819
aF37.28348448738366
aF29.735009534815028
aF42.50222479746033
asS'user'
p5
(lp6
NasS'time'
p7
(lp8
(lp9
I0
aI8
aI35
aI364
aa(lp10
I0
aI8
aI42
aI158
aa(lp11
I0
aI4
aI2
aI560
aa(lp12
I0
aI1
aI18
aI345
aa(lp13
I0
aI4
aI53
aI595
aa(lp14
I0
aI6
aI53
aI407
aa(lp15
I0
aI1
aI16
aI498
aa(lp16
I0
aI10
aI12
aI215
aa(lp17
I0
aI9
aI7
aI25
aa(lp18
I0
aI17
aI7
aI952
aa(lp19
I0
aI7
aI50
aI126
aa(lp20
I0
aI3
aI28
aI506
aa(lp21
I0
aI3
aI8
aI831
aa(lp22
I0
aI4
aI9
aI355
aa(lp23
I0
aI12
aI24
aI494
aa(lp24
I0
aI4
aI23
aI114
aa(lp25
I0
aI11
aI38
aI306
aa(lp26
I0
aI11
aI2
aI821
aa(lp27
I0
aI6
aI20
aI623
aa(lp28
I0
aI2
aI50
aI308
aas.