(lp0
Na.c__builtin__
xrange
p0
(I0
I20
I1
tp1
Rp2
.I1
.N.(dp0
S'states'
p1
(lp2
I19
aI15
aI56
aI141
aI89
aI40
aI55
aI54
aI121
aI65
aI24
aI107
aI45
aI38
aI66
aI56
aI78
aI11
aI63
aI11
asS'pathLength'
p3
(lp4
F11.786737184320808
aF11.395722361649497
aF16.03204059616403
aF11.252602925919374
aF14.117838289895158
aF12.062693042141005
aF11.782236704226623
aF11.010581074200207
aF17.33613389199721
aF11.186599983163513
aF9.971583290263744
aF20.390860212881794
aF10.86564111149251
aF9.950995464217915
aF15.180990594086015
aF12.08535817341356
aF11.648404965537823
aF8.967231569157383
aF10.864634108927621
aF8.234781700929945
asS'user'
p5
(lp6
NasS'time'
p7
(lp8
(lp9
I0
aI0
aI0
aI494
aa(lp10
I0
aI0
aI0
aI288
aa(lp11
I0
aI0
aI1
aI536
aa(lp12
I0
aI0
aI3
aI500
aa(lp13
I0
aI0
aI2
aI55
aa(lp14
I0
aI0
aI0
aI953
aa(lp15
I0
aI0
aI1
aI469
aa(lp16
I0
aI0
aI1
aI215
aa(lp17
I0
aI0
aI2
aI878
aa(lp18
I0
aI0
aI1
aI530
aa(lp19
I0
aI0
aI0
aI453
aa(lp20
I0
aI0
aI2
aI384
aa(lp21
I0
aI0
aI0
aI782
aa(lp22
I0
aI0
aI0
aI906
aa(lp23
I0
aI0
aI1
aI965
aa(lp24
I0
aI0
aI1
aI475
aa(lp25
I0
aI0
aI1
aI729
aa(lp26
I0
aI0
aI0
aI146
aa(lp27
I0
aI0
aI1
aI389
aa(lp28
I0
aI0
aI0
aI176
aas.