(lp0
Na.c__builtin__
xrange
p0
(I0
I20
I1
tp1
Rp2
.I1
.N.(dp0
S'states'
p1
(lp2
I147
aI482
aI429
aI42
aI355
aI249
aI206
aI177
aI270
aI180
aI112
aI83
aI171
aI82
aI268
aI444
aI58
aI198
aI200
aI435
asS'pathLength'
p3
(lp4
F15.911693618269437
aF24.744797496695313
aF18.156300891078267
aF12.605447888147696
aF25.734895098262097
aF17.468278705100612
aF20.364805827615854
aF17.762813116615316
aF17.393953542204116
aF16.658494485573947
aF13.976952406955904
aF14.077946406419606
aF20.630941909721226
aF20.333125437296957
aF33.13351865632087
aF35.02059195602426
aF16.594186322331193
aF14.637802211867282
aF22.766506535628185
aF20.622060302120584
asS'user'
p5
(lp6
NasS'time'
p7
(lp8
(lp9
I0
aI0
aI3
aI291
aa(lp10
I0
aI0
aI10
aI407
aa(lp11
I0
aI0
aI9
aI670
aa(lp12
I0
aI0
aI1
aI101
aa(lp13
I0
aI0
aI7
aI627
aa(lp14
I0
aI0
aI5
aI661
aa(lp15
I0
aI0
aI5
aI111
aa(lp16
I0
aI0
aI3
aI966
aa(lp17
I0
aI0
aI5
aI859
aa(lp18
I0
aI0
aI4
aI297
aa(lp19
I0
aI0
aI2
aI317
aa(lp20
I0
aI0
aI2
aI209
aa(lp21
I0
aI0
aI3
aI524
aa(lp22
I0
aI0
aI1
aI780
aa(lp23
I0
aI0
aI6
aI519
aa(lp24
I0
aI0
aI10
aI577
aa(lp25
I0
aI0
aI1
aI276
aa(lp26
I0
aI0
aI4
aI763
aa(lp27
I0
aI0
aI4
aI377
aa(lp28
I0
aI0
aI9
aI440
aas.