(lp0
Na.(lp0
I73018
aI94123
aI90886
aI98691
aI95390
aI42468
aI27280
aI24860
aI41509
aI12532
aI28012
aI43841
aI13941
aI33139
aI34482
aI70961
aI88977
aI27531
aI10516
aI12471
a.I1
.N.(dp0
S'states'
p1
(lp2
I221
aI185
aI602
aI325
aI832
aI221
aI272
aI346
aI244
aI369
aI405
aI275
aI169
aI286
aI103
aI151
aI338
aI216
aI383
aI214
asS'pathLength'
p3
(lp4
F26.241201745897378
aF22.067021487273955
aF22.044600547549503
aF21.92571511833821
aF30.692341264789704
aF18.84448258309857
aF33.68728716229919
aF25.41929262488499
aF26.195359041154187
aF23.525295370825365
aF27.11720111897472
aF24.094113187493175
aF21.613883851052293
aF14.138495809076609
aF20.790204583012926
aF23.50538457653809
aF28.048304141524316
aF17.64042875759085
aF22.143038281443634
aF20.34409129924934
asS'user'
p5
(lp6
NasS'time'
p7
(lp8
(lp9
I0
aI0
aI13
aI66
aa(lp10
I0
aI0
aI10
aI345
aa(lp11
I0
aI0
aI47
aI592
aa(lp12
I0
aI0
aI22
aI858
aa(lp13
I0
aI0
aI59
aI944
aa(lp14
I0
aI0
aI17
aI497
aa(lp15
I0
aI0
aI18
aI810
aa(lp16
I0
aI0
aI26
aI644
aa(lp17
I0
aI0
aI15
aI993
aa(lp18
I0
aI0
aI23
aI577
aa(lp19
I0
aI0
aI29
aI884
aa(lp20
I0
aI0
aI20
aI740
aa(lp21
I0
aI0
aI12
aI316
aa(lp22
I0
aI0
aI18
aI718
aa(lp23
I0
aI0
aI3
aI718
aa(lp24
I0
aI0
aI9
aI538
aa(lp25
I0
aI0
aI24
aI648
aa(lp26
I0
aI0
aI12
aI530
aa(lp27
I0
aI0
aI24
aI997
aa(lp28
I0
aI0
aI16
aI425
aas.